; ModuleID = '54/434.c'
source_filename = "54/434.c"
target datalayout = "e-m:e-p270:32:32-p271:32:32-p272:64:64-i64:64-f80:128-n8:16:32:64-S128"
target triple = "x86_64-pc-linux-gnu"

@.str = private unnamed_addr constant [5 x i8] c"%d%d\00", align 1
@.str.1 = private unnamed_addr constant [16 x i8] c"n>k not match!\0A\00", align 1
@.str.2 = private unnamed_addr constant [4 x i8] c"%d\0A\00", align 1

; Function Attrs: noinline nounwind uwtable
define dso_local i32 @main() #0 {
  %1 = alloca i32, align 4
  %2 = alloca i32, align 4
  %3 = alloca i32, align 4
  %4 = alloca i32, align 4
  %5 = alloca i32, align 4
  %6 = alloca i32, align 4
  %7 = alloca i32, align 4
  store i32 0, i32* %1, align 4
  %8 = call i32 (i8*, ...) @__isoc99_scanf(i8* getelementptr inbounds ([5 x i8], [5 x i8]* @.str, i64 0, i64 0), i32* %2, i32* %3)
  %9 = load i32, i32* %2, align 4
  %10 = load i32, i32* %3, align 4
  %11 = icmp slt i32 %9, %10
  br i1 %11, label %12, label %14

12:                                               ; preds = %0
  %13 = call i32 (i8*, ...) @printf(i8* getelementptr inbounds ([16 x i8], [16 x i8]* @.str.1, i64 0, i64 0))
  store i32 1, i32* %1, align 4
  br label %63

14:                                               ; preds = %0
  %15 = load i32, i32* %2, align 4
  %16 = load i32, i32* %3, align 4
  %17 = add nsw i32 %15, %16
  store i32 %17, i32* %4, align 4
  store i32 1, i32* %5, align 4
  br label %18

18:                                               ; preds = %14, %57
  %19 = load i32, i32* %4, align 4
  store i32 %19, i32* %7, align 4
  store i32 0, i32* %6, align 4
  br label %20

20:                                               ; preds = %40, %18
  %21 = load i32, i32* %6, align 4
  %22 = load i32, i32* %2, align 4
  %23 = sub nsw i32 %22, 1
  %24 = icmp slt i32 %21, %23
  br i1 %24, label %25, label %43

25:                                               ; preds = %20
  %26 = load i32, i32* %7, align 4
  %27 = load i32, i32* %2, align 4
  %28 = srem i32 %26, %27
  %29 = load i32, i32* %3, align 4
  %30 = icmp ne i32 %28, %29
  br i1 %30, label %31, label %32

31:                                               ; preds = %25
  store i32 0, i32* %5, align 4
  br label %43

32:                                               ; preds = %25
  %33 = load i32, i32* %7, align 4
  %34 = load i32, i32* %7, align 4
  %35 = load i32, i32* %2, align 4
  %36 = sdiv i32 %34, %35
  %37 = sub nsw i32 %33, %36
  %38 = load i32, i32* %3, align 4
  %39 = sub nsw i32 %37, %38
  store i32 %39, i32* %7, align 4
  br label %40

40:                                               ; preds = %32
  %41 = load i32, i32* %6, align 4
  %42 = add nsw i32 %41, 1
  store i32 %42, i32* %6, align 4
  br label %20

43:                                               ; preds = %31, %20
  %44 = load i32, i32* %7, align 4
  %45 = load i32, i32* %2, align 4
  %46 = srem i32 %44, %45
  %47 = load i32, i32* %3, align 4
  %48 = icmp eq i32 %46, %47
  br i1 %48, label %49, label %57

49:                                               ; preds = %43
  %50 = load i32, i32* %5, align 4
  %51 = icmp eq i32 %50, 1
  br i1 %51, label %52, label %57

52:                                               ; preds = %49
  %53 = load i32, i32* %7, align 4
  %54 = load i32, i32* %2, align 4
  %55 = icmp sgt i32 %53, %54
  br i1 %55, label %56, label %57

56:                                               ; preds = %52
  br label %60

57:                                               ; preds = %52, %49, %43
  store i32 1, i32* %5, align 4
  %58 = load i32, i32* %4, align 4
  %59 = add nsw i32 %58, 1
  store i32 %59, i32* %4, align 4
  br label %18

60:                                               ; preds = %56
  %61 = load i32, i32* %4, align 4
  %62 = call i32 (i8*, ...) @printf(i8* getelementptr inbounds ([4 x i8], [4 x i8]* @.str.2, i64 0, i64 0), i32 %61)
  store i32 0, i32* %1, align 4
  br label %63

63:                                               ; preds = %60, %12
  %64 = load i32, i32* %1, align 4
  ret i32 %64
}

declare dso_local i32 @__isoc99_scanf(i8*, ...) #1

declare dso_local i32 @printf(i8*, ...) #1


!llvm.module.flags = !{!0}
!llvm.ident = !{!1}

!0 = !{i32 1, !"wchar_size", i32 4}
!1 = !{!"clang version 10.0.0-4ubuntu1 "}
